; Function Attrs: null_pointer_is_valid sspstrong uwtable
define internal i32 @dissect_enip_tcp(ptr noundef %0, ptr noundef %1, ptr noundef %2, ptr noundef %3) #0 {
  %5 = tail call i32 @tvb_captured_length(ptr noundef %0)
  %6 = icmp ult i32 %5, 2
  br i1 %6, label %11, label %7

7:                                                ; preds = %4
  %8 = load i8, ptr @enip_desegment, align 1, !range !17, !noundef !18
  %9 = trunc nuw i8 %8 to i1
  tail call void @tcp_dissect_pdus(ptr noundef %0, ptr noundef %1, ptr noundef %2, i1 noundef zeroext %9, i32 noundef 4, ptr noundef nonnull @get_enip_pdu_len, ptr noundef nonnull @dissect_enip_pdu, ptr noundef %3)
  %10 = tail call i32 @tvb_captured_length(ptr noundef %0)
  br label %11

11:                                               ; preds = %4, %7
  %.0 = phi i32 [ %10, %7 ], [ 0, %4 ]
  ret i32 %.0
}